; Function Attrs: mustprogress nofree norecurse nosync nounwind memory(readwrite, inaccessiblemem: none) uwtable
define dso_local void @_ZN24btMultiBodyDynamicsWorld15removeMultiBodyEP11btMultiBody(ptr noundef nonnull align 8 captures(none) dereferenceable(848) %0, ptr noundef readnone captures(address) %1) unnamed_addr #1 align 2 {
  %3 = getelementptr inbounds nuw i8, ptr %0, i64 516
  %4 = load i32, ptr %3, align 4, !tbaa !4
  %5 = icmp sgt i32 %4, 0
  br i1 %5, label %.lr.ph.i.i, label %_ZN20btAlignedObjectArrayIP11btMultiBodyE6removeERKS1_.exit

.lr.ph.i.i:                                       ; preds = %2
  %6 = getelementptr inbounds nuw i8, ptr %0, i64 528
  %7 = load ptr, ptr %6, align 8, !tbaa !14
  %wide.trip.count.i.i = zext nneg i32 %4 to i64
  br label %8

8:                                                ; preds = %12, %.lr.ph.i.i
  %indvars.iv.i.i = phi i64 [ 0, %.lr.ph.i.i ], [ %indvars.iv.next.i.i, %12 ]
  %9 = getelementptr inbounds nuw ptr, ptr %7, i64 %indvars.iv.i.i
  %10 = load ptr, ptr %9, align 8, !tbaa !15
  %11 = icmp eq ptr %10, %1
  br i1 %11, label %_ZNK20btAlignedObjectArrayIP11btMultiBodyE16findLinearSearchERKS1_.exit.i, label %12

12:                                               ; preds = %8
  %indvars.iv.next.i.i = add nuw nsw i64 %indvars.iv.i.i, 1
  %exitcond.not.i.i = icmp eq i64 %indvars.iv.next.i.i, %wide.trip.count.i.i
  br i1 %exitcond.not.i.i, label %_ZN20btAlignedObjectArrayIP11btMultiBodyE6removeERKS1_.exit, label %8, !llvm.loop !22

_ZNK20btAlignedObjectArrayIP11btMultiBodyE16findLinearSearchERKS1_.exit.i: ; preds = %8
  %13 = trunc nuw nsw i64 %indvars.iv.i.i to i32
  %14 = icmp sgt i32 %4, %13
  br i1 %14, label %15, label %_ZN20btAlignedObjectArrayIP11btMultiBodyE6removeERKS1_.exit

15:                                               ; preds = %_ZNK20btAlignedObjectArrayIP11btMultiBodyE16findLinearSearchERKS1_.exit.i
  %16 = add nsw i32 %4, -1
  %sext.i = shl i64 %indvars.iv.i.i, 32
  %17 = ashr exact i64 %sext.i, 29
  %18 = getelementptr inbounds i8, ptr %7, i64 %17
  %19 = load ptr, ptr %18, align 8, !tbaa !15
  %20 = sext i32 %16 to i64
  %21 = getelementptr inbounds ptr, ptr %7, i64 %20
  %22 = load ptr, ptr %21, align 8, !tbaa !15
  store ptr %22, ptr %18, align 8, !tbaa !15
  store ptr %19, ptr %21, align 8, !tbaa !15
  store i32 %16, ptr %3, align 4, !tbaa !4
  br label %_ZN20btAlignedObjectArrayIP11btMultiBodyE6removeERKS1_.exit

_ZN20btAlignedObjectArrayIP11btMultiBodyE6removeERKS1_.exit: ; preds = %12, %2, %_ZNK20btAlignedObjectArrayIP11btMultiBodyE16findLinearSearchERKS1_.exit.i, %15
  ret void
}